Certificate:
    Data:
        Version: 3 (0x2)
        Serial Number: 1 (0x1)
        Signature Algorithm: sha1WithRSAEncryption
        Issuer: C=AU, ST=Some-State, O=Internet Widgits Pty Ltd, CN=lvl1/emailAddress=lvl1@example.com
        Validity
            Not Before: Nov  8 02:17:41 2005 GMT
            Not After : Nov  8 02:17:41 2006 GMT
        Subject: C=AU, ST=Some-State, O=Internet Widgits Pty Ltd, CN=ar2/emailAddress=ar2@example.com
        Subject Public Key Info:
            Public Key Algorithm: rsaEncryption
            RSA Public Key: (1024 bit)
                Modulus (1024 bit):
                    00:b2:76:ea:09:51:8e:94:17:1f:4d:8e:5a:15:dd:
                    14:14:ab:c2:dc:55:46:f6:eb:69:2c:50:5f:3e:46:
                    57:7b:2d:b6:9b:ce:c3:be:61:5a:21:94:7e:34:63:
                    32:40:a2:3f:df:f1:ac:11:d0:63:d4:62:d4:b5:ea:
                    8d:5e:73:12:17:ac:ed:b7:9e:92:1b:0c:6c:9b:87:
                    d1:95:ed:95:86:b5:f0:3a:de:00:3f:e3:5b:60:bd:
                    60:3d:9b:f5:fe:f9:66:7c:18:c0:b6:57:d3:35:74:
                    d7:fe:ce:5d:1a:d3:da:1f:d5:ec:77:94:dd:50:d8:
                    b4:35:ce:94:61:6e:fa:c4:9f
                Exponent: 65537 (0x10001)
        X509v3 extensions:
            X509v3 Basic Constraints: 
                CA:FALSE
            Netscape Comment: 
                OpenSSL Generated Certificate
            X509v3 Subject Key Identifier: 
                56:7A:35:5A:65:BB:47:CA:AA:9D:23:00:74:B5:5D:D2:9A:12:B0:F9
            X509v3 Authority Key Identifier: 
                keyid:FF:F5:6F:51:62:08:BA:4E:A7:FF:23:57:C4:80:B0:6A:DC:BB:50:EB
                DirName:/C=AU/ST=Some-State/O=Internet Widgits Pty Ltd/CN=CA/emailAddress=ca@example.com
                serial:8F:27:AC:9D:F6:B6:6C:46

    Signature Algorithm: sha1WithRSAEncryption
        1a:15:a6:c1:6d:62:dc:2a:e4:2e:8e:c9:3a:53:ed:22:9e:b1:
        6d:8a:e3:69:04:af:99:93:3f:6c:1b:2c:e3:92:52:59:02:01:
        0e:e8:3b:20:60:4a:5c:4a:41:84:17:f1:91:24:fe:e6:18:ce:
        90:8e:b8:5b:83:86:f1:a1:af:57:c6:4d:f4:75:d7:93:ec:57:
        98:85:c3:a8:a9:45:07:41:0b:3b:b1:3a:42:cf:b0:6b:98:38:
        b2:fd:9d:d1:cc:64:79:33:e2:9d:62:5f:c0:af:ca:00:00:89:
        75:1a:5a:a7:21:a7:3a:40:9c:9c:64:97:bc:c0:80:df:11:05:
        a5:3c
-----BEGIN CERTIFICATE-----
MIIDYTCCAsqgAwIBAgIBATANBgkqhkiG9w0BAQUFADB1MQswCQYDVQQGEwJBVTET
MBEGA1UECBMKU29tZS1TdGF0ZTEhMB8GA1UEChMYSW50ZXJuZXQgV2lkZ2l0cyBQ
dHkgTHRkMQ0wCwYDVQQDEwRsdmwxMR8wHQYJKoZIhvcNAQkBFhBsdmwxQGV4YW1w
bGUuY29tMB4XDTA1MTEwODAyMTc0MVoXDTA2MTEwODAyMTc0MVowczELMAkGA1UE
BhMCQVUxEzARBgNVBAgTClNvbWUtU3RhdGUxITAfBgNVBAoTGEludGVybmV0IFdp
ZGdpdHMgUHR5IEx0ZDEMMAoGA1UEAxMDYXIyMR4wHAYJKoZIhvcNAQkBFg9hcjJA
ZXhhbXBsZS5jb20wgZ8wDQYJKoZIhvcNAQEBBQADgY0AMIGJAoGBALJ26glRjpQX
H02OWhXdFBSrwtxVRvbraSxQXz5GV3sttpvOw75hWiGUfjRjMkCiP9/xrBHQY9Ri
1LXqjV5zEhes7beekhsMbJuH0ZXtlYa18DreAD/jW2C9YD2b9f75ZnwYwLZX0zV0
1/7OXRrT2h/V7HeU3VDYtDXOlGFu+sSfAgMBAAGjggEBMIH+MAkGA1UdEwQCMAAw
LAYJYIZIAYb4QgENBB8WHU9wZW5TU0wgR2VuZXJhdGVkIENlcnRpZmljYXRlMB0G
A1UdDgQWBBRWejVaZbtHyqqdIwB0tV3SmhKw+TCBowYDVR0jBIGbMIGYgBT/9W9R
Ygi6Tqf/I1fEgLBq3LtQ66F1pHMwcTELMAkGA1UEBhMCQVUxEzARBgNVBAgTClNv
bWUtU3RhdGUxITAfBgNVBAoTGEludGVybmV0IFdpZGdpdHMgUHR5IEx0ZDELMAkG
A1UEAxMCQ0ExHTAbBgkqhkiG9w0BCQEWDmNhQGV4YW1wbGUuY29tggkAjyesnfa2
bEYwDQYJKoZIhvcNAQEFBQADgYEAGhWmwW1i3CrkLo7JOlPtIp6xbYrjaQSvmZM/
bBss45JSWQIBDug7IGBKXEpBhBfxkST+5hjOkI64W4OG8aGvV8ZN9HXXk+xXmIXD
qKlFB0ELO7E6Qs+wa5g4sv2d0cxkeTPinWJfwK/KAACJdRpapyGnOkCcnGSXvMCA
3xEFpTw=
-----END CERTIFICATE-----
