Certificate:
    Data:
        Version: 3 (0x2)
        Serial Number: 2 (0x2)
        Signature Algorithm: sha1WithRSAEncryption
        Issuer: C=AU, ST=Some-State, O=Internet Widgits Pty Ltd, CN=lvl1/emailAddress=lvl1@example.com
        Validity
            Not Before: Nov  8 02:18:20 2005 GMT
            Not After : Nov  8 02:18:20 2006 GMT
        Subject: C=AU, ST=Some-State, O=Internet Widgits Pty Ltd, CN=ar3/emailAddress=ar3@example.com
        Subject Public Key Info:
            Public Key Algorithm: rsaEncryption
            RSA Public Key: (1024 bit)
                Modulus (1024 bit):
                    00:c0:57:79:8d:82:8d:f4:25:74:44:90:5b:3b:66:
                    18:99:07:5e:d4:c4:ed:d9:b7:e5:ff:5d:69:2e:b3:
                    7d:b3:fb:ce:4c:06:bb:5b:e4:1c:cb:a2:64:e9:1f:
                    b5:4f:52:1b:b5:50:ff:6b:15:75:db:a3:c0:22:59:
                    e2:a6:5b:62:15:a7:ca:61:14:c5:b3:06:7a:02:cc:
                    13:14:fb:08:13:ba:34:0a:a1:2a:07:4b:58:68:9c:
                    30:01:ff:65:b9:f1:01:42:af:91:1f:67:fd:fd:85:
                    41:ea:e4:7c:e6:f5:29:af:03:51:57:4c:8c:af:d9:
                    8b:db:e7:63:e6:b1:45:0e:31
                Exponent: 65537 (0x10001)
        X509v3 extensions:
            X509v3 Basic Constraints: 
                CA:FALSE
            Netscape Comment: 
                OpenSSL Generated Certificate
            X509v3 Subject Key Identifier: 
                63:81:8B:FB:08:C3:74:46:A3:A0:85:C2:07:3A:1E:A7:38:28:AF:8E
            X509v3 Authority Key Identifier: 
                keyid:FF:F5:6F:51:62:08:BA:4E:A7:FF:23:57:C4:80:B0:6A:DC:BB:50:EB
                DirName:/C=AU/ST=Some-State/O=Internet Widgits Pty Ltd/CN=CA/emailAddress=ca@example.com
                serial:8F:27:AC:9D:F6:B6:6C:46

    Signature Algorithm: sha1WithRSAEncryption
        d6:2a:03:6f:9b:de:a1:85:80:06:62:76:7f:80:e6:74:9c:95:
        fa:40:20:9a:08:12:4f:5c:a9:f3:28:39:88:40:8b:93:27:96:
        80:ab:03:6e:02:a3:95:32:25:d8:5c:c3:ac:93:d3:57:19:44:
        c8:8b:d4:0d:de:97:e4:18:5d:8e:24:47:12:3c:ba:90:bd:0d:
        e6:66:17:37:75:6a:d8:21:1a:f2:5e:60:5d:3c:ca:c8:f7:b8:
        46:0b:c6:69:0a:34:10:a8:e2:93:49:d1:ae:70:6e:f9:ef:57:
        3a:60:7e:b4:9f:bd:ea:7f:e8:e8:aa:ae:67:25:33:d2:96:19:
        46:7c
-----BEGIN CERTIFICATE-----
MIIDYTCCAsqgAwIBAgIBAjANBgkqhkiG9w0BAQUFADB1MQswCQYDVQQGEwJBVTET
MBEGA1UECBMKU29tZS1TdGF0ZTEhMB8GA1UEChMYSW50ZXJuZXQgV2lkZ2l0cyBQ
dHkgTHRkMQ0wCwYDVQQDEwRsdmwxMR8wHQYJKoZIhvcNAQkBFhBsdmwxQGV4YW1w
bGUuY29tMB4XDTA1MTEwODAyMTgyMFoXDTA2MTEwODAyMTgyMFowczELMAkGA1UE
BhMCQVUxEzARBgNVBAgTClNvbWUtU3RhdGUxITAfBgNVBAoTGEludGVybmV0IFdp
ZGdpdHMgUHR5IEx0ZDEMMAoGA1UEAxMDYXIzMR4wHAYJKoZIhvcNAQkBFg9hcjNA
ZXhhbXBsZS5jb20wgZ8wDQYJKoZIhvcNAQEBBQADgY0AMIGJAoGBAMBXeY2CjfQl
dESQWztmGJkHXtTE7dm35f9daS6zfbP7zkwGu1vkHMuiZOkftU9SG7VQ/2sVdduj
wCJZ4qZbYhWnymEUxbMGegLMExT7CBO6NAqhKgdLWGicMAH/ZbnxAUKvkR9n/f2F
QerkfOb1Ka8DUVdMjK/Zi9vnY+axRQ4xAgMBAAGjggEBMIH+MAkGA1UdEwQCMAAw
LAYJYIZIAYb4QgENBB8WHU9wZW5TU0wgR2VuZXJhdGVkIENlcnRpZmljYXRlMB0G
A1UdDgQWBBRjgYv7CMN0RqOghcIHOh6nOCivjjCBowYDVR0jBIGbMIGYgBT/9W9R
Ygi6Tqf/I1fEgLBq3LtQ66F1pHMwcTELMAkGA1UEBhMCQVUxEzARBgNVBAgTClNv
bWUtU3RhdGUxITAfBgNVBAoTGEludGVybmV0IFdpZGdpdHMgUHR5IEx0ZDELMAkG
A1UEAxMCQ0ExHTAbBgkqhkiG9w0BCQEWDmNhQGV4YW1wbGUuY29tggkAjyesnfa2
bEYwDQYJKoZIhvcNAQEFBQADgYEA1ioDb5veoYWABmJ2f4DmdJyV+kAgmggST1yp
8yg5iECLkyeWgKsDbgKjlTIl2FzDrJPTVxlEyIvUDd6X5BhdjiRHEjy6kL0N5mYX
N3Vq2CEa8l5gXTzKyPe4RgvGaQo0EKjik0nRrnBu+e9XOmB+tJ+96n/o6KquZyUz
0pYZRnw=
-----END CERTIFICATE-----
