Certificate:
    Data:
        Version: 3 (0x2)
        Serial Number:
            8f:27:ac:9d:f6:b6:6c:45
        Signature Algorithm: sha1WithRSAEncryption
        Issuer: C=AU, ST=Some-State, O=Internet Widgits Pty Ltd, CN=CA/emailAddress=ca@example.com
        Validity
            Not Before: Nov  8 02:16:01 2005 GMT
            Not After : Nov  7 02:16:01 2008 GMT
        Subject: C=AU, ST=Some-State, O=Internet Widgits Pty Ltd, CN=CA/emailAddress=ca@example.com
        Subject Public Key Info:
            Public Key Algorithm: rsaEncryption
            RSA Public Key: (1024 bit)
                Modulus (1024 bit):
                    00:ab:be:27:49:c8:a4:e2:d7:99:9e:32:21:3c:c9:
                    1e:04:3e:b1:ea:18:23:43:9f:13:4f:ea:73:7d:b8:
                    28:8b:3d:ee:f5:e6:fd:62:31:81:0c:ff:58:8b:9e:
                    4a:32:ff:a2:88:39:d8:cc:b1:95:00:36:aa:1c:e4:
                    95:92:66:e2:2a:77:f8:2a:df:82:cb:a8:d2:36:bd:
                    7f:14:f6:57:ba:84:b8:56:37:f4:d4:30:da:76:2d:
                    6b:17:3e:dc:01:12:74:a7:49:1b:93:53:57:1c:6a:
                    8d:68:3a:7b:d1:11:de:be:67:7f:27:62:bf:34:b6:
                    f2:14:30:25:4f:1f:d9:0a:bb
                Exponent: 65537 (0x10001)
        X509v3 extensions:
            X509v3 Basic Constraints: 
                CA:FALSE
            Netscape Comment: 
                OpenSSL Generated Certificate
            X509v3 Subject Key Identifier: 
                0C:14:03:18:AC:5A:50:9D:43:1B:23:08:4C:94:92:12:8C:57:C4:55
            X509v3 Authority Key Identifier: 
                keyid:0C:14:03:18:AC:5A:50:9D:43:1B:23:08:4C:94:92:12:8C:57:C4:55
                DirName:/C=AU/ST=Some-State/O=Internet Widgits Pty Ltd/CN=CA/emailAddress=ca@example.com
                serial:8F:27:AC:9D:F6:B6:6C:45

    Signature Algorithm: sha1WithRSAEncryption
        76:85:55:f0:1d:28:77:0c:c4:4e:32:ad:b9:69:39:ee:5b:3d:
        2a:6e:25:a4:04:50:19:b4:10:8a:2d:5e:13:25:d7:09:cd:0c:
        08:8f:e5:ea:5b:4f:cd:68:67:e4:ad:fd:7d:ba:7e:3a:22:14:
        26:6e:dc:3d:17:64:fc:15:ad:db:43:25:0d:51:2e:9d:82:6a:
        3f:5a:4d:bd:cf:7d:ec:ac:d6:6f:65:99:52:48:cb:b0:33:19:
        db:a3:7a:c7:ee:92:c3:26:a9:d1:8f:d5:42:82:6c:cb:b4:1c:
        20:e1:6c:ba:c1:59:9d:ef:ee:a4:5c:7d:e9:5c:84:82:7e:df:
        ff:30
-----BEGIN CERTIFICATE-----
MIIDYzCCAsygAwIBAgIJAI8nrJ32tmxFMA0GCSqGSIb3DQEBBQUAMHExCzAJBgNV
BAYTAkFVMRMwEQYDVQQIEwpTb21lLVN0YXRlMSEwHwYDVQQKExhJbnRlcm5ldCBX
aWRnaXRzIFB0eSBMdGQxCzAJBgNVBAMTAkNBMR0wGwYJKoZIhvcNAQkBFg5jYUBl
eGFtcGxlLmNvbTAeFw0wNTExMDgwMjE2MDFaFw0wODExMDcwMjE2MDFaMHExCzAJ
BgNVBAYTAkFVMRMwEQYDVQQIEwpTb21lLVN0YXRlMSEwHwYDVQQKExhJbnRlcm5l
dCBXaWRnaXRzIFB0eSBMdGQxCzAJBgNVBAMTAkNBMR0wGwYJKoZIhvcNAQkBFg5j
YUBleGFtcGxlLmNvbTCBnzANBgkqhkiG9w0BAQEFAAOBjQAwgYkCgYEAq74nScik
4teZnjIhPMkeBD6x6hgjQ58TT+pzfbgoiz3u9eb9YjGBDP9Yi55KMv+iiDnYzLGV
ADaqHOSVkmbiKnf4Kt+Cy6jSNr1/FPZXuoS4Vjf01DDadi1rFz7cARJ0p0kbk1NX
HGqNaDp70RHevmd/J2K/NLbyFDAlTx/ZCrsCAwEAAaOCAQEwgf4wCQYDVR0TBAIw
ADAsBglghkgBhvhCAQ0EHxYdT3BlblNTTCBHZW5lcmF0ZWQgQ2VydGlmaWNhdGUw
HQYDVR0OBBYEFAwUAxisWlCdQxsjCEyUkhKMV8RVMIGjBgNVHSMEgZswgZiAFAwU
AxisWlCdQxsjCEyUkhKMV8RVoXWkczBxMQswCQYDVQQGEwJBVTETMBEGA1UECBMK
U29tZS1TdGF0ZTEhMB8GA1UEChMYSW50ZXJuZXQgV2lkZ2l0cyBQdHkgTHRkMQsw
CQYDVQQDEwJDQTEdMBsGCSqGSIb3DQEJARYOY2FAZXhhbXBsZS5jb22CCQCPJ6yd
9rZsRTANBgkqhkiG9w0BAQUFAAOBgQB2hVXwHSh3DMROMq25aTnuWz0qbiWkBFAZ
tBCKLV4TJdcJzQwIj+XqW0/NaGfkrf19un46IhQmbtw9F2T8Fa3bQyUNUS6dgmo/
Wk29z33srNZvZZlSSMuwMxnbo3rH7pLDJqnRj9VCgmzLtBwg4Wy6wVmd7+6kXH3p
XISCft//MA==
-----END CERTIFICATE-----
