Certificate:
    Data:
        Version: 3 (0x2)
        Serial Number:
            8f:27:ac:9d:f6:b6:6c:46
        Signature Algorithm: sha1WithRSAEncryption
        Issuer: C=AU, ST=Some-State, O=Internet Widgits Pty Ltd, CN=CA/emailAddress=ca@example.com
        Validity
            Not Before: Nov  8 02:16:17 2005 GMT
            Not After : Nov  8 02:16:17 2006 GMT
        Subject: C=AU, ST=Some-State, O=Internet Widgits Pty Ltd, CN=lvl1/emailAddress=lvl1@example.com
        Subject Public Key Info:
            Public Key Algorithm: rsaEncryption
            RSA Public Key: (1024 bit)
                Modulus (1024 bit):
                    00:ef:25:cd:dd:ca:dc:7f:88:dc:26:17:b3:a7:bf:
                    2b:13:3c:c5:6f:58:32:9c:01:55:bb:3e:9f:61:4d:
                    c0:b2:03:5a:63:ea:03:68:0e:f8:73:2c:a2:88:ed:
                    d0:eb:62:a0:ee:06:cf:60:f7:27:8f:25:44:91:bf:
                    81:2b:e5:7a:12:ae:1b:68:7c:b3:55:d0:7f:d2:03:
                    3b:72:a5:bf:8b:73:c6:4c:7b:63:45:48:5a:f4:14:
                    87:65:42:30:3d:7c:8f:13:3e:b5:99:3c:a7:68:d0:
                    83:66:da:41:df:8c:75:31:d1:f9:80:58:85:93:6f:
                    62:ca:c9:cb:cc:2b:61:cf:b3
                Exponent: 65537 (0x10001)
        X509v3 extensions:
            X509v3 Basic Constraints: 
                CA:FALSE
            Netscape Comment: 
                OpenSSL Generated Certificate
            X509v3 Subject Key Identifier: 
                FF:F5:6F:51:62:08:BA:4E:A7:FF:23:57:C4:80:B0:6A:DC:BB:50:EB
            X509v3 Authority Key Identifier: 
                keyid:0C:14:03:18:AC:5A:50:9D:43:1B:23:08:4C:94:92:12:8C:57:C4:55
                DirName:/C=AU/ST=Some-State/O=Internet Widgits Pty Ltd/CN=CA/emailAddress=ca@example.com
                serial:8F:27:AC:9D:F6:B6:6C:45

    Signature Algorithm: sha1WithRSAEncryption
        9e:fb:e4:2d:7a:89:8a:02:4e:bf:69:a3:57:4e:76:ce:cd:0c:
        d8:d8:27:6f:66:35:de:48:02:3a:fb:5d:54:30:4f:3e:d4:78:
        a1:a7:7f:83:41:7a:f1:24:0e:1d:06:ff:78:37:90:26:e9:42:
        d9:9b:88:12:e5:4e:9b:cc:64:97:45:99:30:54:62:2a:aa:32:
        0e:cd:9e:4c:8f:70:53:76:83:1f:70:d1:e0:85:93:f6:fa:ac:
        81:60:b8:93:61:15:ca:34:39:8b:d0:52:8b:8e:78:96:a0:1f:
        cc:8a:88:3a:f8:8d:e4:e1:d3:7c:aa:b0:e0:7e:4e:d4:b1:d6:
        aa:e8
-----BEGIN CERTIFICATE-----
MIIDZzCCAtCgAwIBAgIJAI8nrJ32tmxGMA0GCSqGSIb3DQEBBQUAMHExCzAJBgNV
BAYTAkFVMRMwEQYDVQQIEwpTb21lLVN0YXRlMSEwHwYDVQQKExhJbnRlcm5ldCBX
aWRnaXRzIFB0eSBMdGQxCzAJBgNVBAMTAkNBMR0wGwYJKoZIhvcNAQkBFg5jYUBl
eGFtcGxlLmNvbTAeFw0wNTExMDgwMjE2MTdaFw0wNjExMDgwMjE2MTdaMHUxCzAJ
BgNVBAYTAkFVMRMwEQYDVQQIEwpTb21lLVN0YXRlMSEwHwYDVQQKExhJbnRlcm5l
dCBXaWRnaXRzIFB0eSBMdGQxDTALBgNVBAMTBGx2bDExHzAdBgkqhkiG9w0BCQEW
EGx2bDFAZXhhbXBsZS5jb20wgZ8wDQYJKoZIhvcNAQEBBQADgY0AMIGJAoGBAO8l
zd3K3H+I3CYXs6e/KxM8xW9YMpwBVbs+n2FNwLIDWmPqA2gO+HMsoojt0OtioO4G
z2D3J48lRJG/gSvlehKuG2h8s1XQf9IDO3Klv4tzxkx7Y0VIWvQUh2VCMD18jxM+
tZk8p2jQg2baQd+MdTHR+YBYhZNvYsrJy8wrYc+zAgMBAAGjggEBMIH+MAkGA1Ud
EwQCMAAwLAYJYIZIAYb4QgENBB8WHU9wZW5TU0wgR2VuZXJhdGVkIENlcnRpZmlj
YXRlMB0GA1UdDgQWBBT/9W9RYgi6Tqf/I1fEgLBq3LtQ6zCBowYDVR0jBIGbMIGY
gBQMFAMYrFpQnUMbIwhMlJISjFfEVaF1pHMwcTELMAkGA1UEBhMCQVUxEzARBgNV
BAgTClNvbWUtU3RhdGUxITAfBgNVBAoTGEludGVybmV0IFdpZGdpdHMgUHR5IEx0
ZDELMAkGA1UEAxMCQ0ExHTAbBgkqhkiG9w0BCQEWDmNhQGV4YW1wbGUuY29tggkA
jyesnfa2bEUwDQYJKoZIhvcNAQEFBQADgYEAnvvkLXqJigJOv2mjV052zs0M2Ngn
b2Y13kgCOvtdVDBPPtR4oad/g0F68SQOHQb/eDeQJulC2ZuIEuVOm8xkl0WZMFRi
KqoyDs2eTI9wU3aDH3DR4IWT9vqsgWC4k2EVyjQ5i9BSi454lqAfzIqIOviN5OHT
fKqw4H5O1LHWqug=
-----END CERTIFICATE-----
