Certificate:
    Data:
        Version: 3 (0x2)
        Serial Number: 0 (0x0)
        Signature Algorithm: sha1WithRSAEncryption
        Issuer: C=AU, ST=Some-State, O=Internet Widgits Pty Ltd, CN=lvl1/emailAddress=lvl1@example.com
        Validity
            Not Before: Nov  8 02:16:33 2005 GMT
            Not After : Nov  8 02:16:33 2006 GMT
        Subject: C=AU, ST=Some-State, O=Internet Widgits Pty Ltd, CN=ar1/emailAddress=ar1@example.com
        Subject Public Key Info:
            Public Key Algorithm: rsaEncryption
            RSA Public Key: (1024 bit)
                Modulus (1024 bit):
                    00:b1:c1:58:bf:fe:2d:64:b3:f5:43:17:c4:91:e8:
                    0d:cd:e4:06:cd:41:57:4f:7f:d7:b7:e6:25:8e:af:
                    24:62:3d:38:bc:87:91:f0:cb:7a:ff:1f:94:77:b4:
                    f4:79:56:f6:bb:c5:a9:41:34:47:18:e6:f7:a2:26:
                    2b:c5:4c:ee:d0:4f:23:92:8a:ab:18:72:83:8d:68:
                    1e:65:7f:db:36:05:41:fb:87:92:3f:7b:3a:2e:1b:
                    24:f6:c2:8b:42:31:3f:10:a3:82:6f:60:be:f5:08:
                    ab:2b:ab:a7:87:ed:fb:c0:6a:ca:7c:f0:f3:cf:c5:
                    78:39:1b:b4:bb:67:a7:e6:ff
                Exponent: 65537 (0x10001)
        X509v3 extensions:
            X509v3 Basic Constraints: 
                CA:FALSE
            Netscape Comment: 
                OpenSSL Generated Certificate
            X509v3 Subject Key Identifier: 
                FE:1A:C0:9C:87:53:9B:FA:6E:FF:8B:57:56:28:A8:72:CF:05:68:DB
            X509v3 Authority Key Identifier: 
                keyid:FF:F5:6F:51:62:08:BA:4E:A7:FF:23:57:C4:80:B0:6A:DC:BB:50:EB
                DirName:/C=AU/ST=Some-State/O=Internet Widgits Pty Ltd/CN=CA/emailAddress=ca@example.com
                serial:8F:27:AC:9D:F6:B6:6C:46

    Signature Algorithm: sha1WithRSAEncryption
        38:47:e8:9e:ce:13:b7:fd:e7:d4:01:d3:bd:2a:db:27:ee:9a:
        57:3f:a0:c5:09:82:67:58:71:b5:7f:e0:e7:38:64:17:c4:4b:
        70:23:f4:4c:24:12:f4:07:8a:ee:e4:c5:8e:7c:b9:11:81:07:
        7c:db:33:99:80:e9:4a:22:2f:ed:89:7a:ac:26:99:1a:9d:7a:
        14:a8:d9:d6:4b:77:de:d9:b6:ab:2f:30:36:9f:5a:ec:27:94:
        7e:16:7a:04:fe:0f:91:fb:3a:cc:ef:97:f4:e3:d1:47:76:a5:
        16:37:8c:3c:2a:09:ab:97:04:dc:df:bc:02:e5:b0:2f:0a:9c:
        6f:b8
-----BEGIN CERTIFICATE-----
MIIDYTCCAsqgAwIBAgIBADANBgkqhkiG9w0BAQUFADB1MQswCQYDVQQGEwJBVTET
MBEGA1UECBMKU29tZS1TdGF0ZTEhMB8GA1UEChMYSW50ZXJuZXQgV2lkZ2l0cyBQ
dHkgTHRkMQ0wCwYDVQQDEwRsdmwxMR8wHQYJKoZIhvcNAQkBFhBsdmwxQGV4YW1w
bGUuY29tMB4XDTA1MTEwODAyMTYzM1oXDTA2MTEwODAyMTYzM1owczELMAkGA1UE
BhMCQVUxEzARBgNVBAgTClNvbWUtU3RhdGUxITAfBgNVBAoTGEludGVybmV0IFdp
ZGdpdHMgUHR5IEx0ZDEMMAoGA1UEAxMDYXIxMR4wHAYJKoZIhvcNAQkBFg9hcjFA
ZXhhbXBsZS5jb20wgZ8wDQYJKoZIhvcNAQEBBQADgY0AMIGJAoGBALHBWL/+LWSz
9UMXxJHoDc3kBs1BV09/17fmJY6vJGI9OLyHkfDLev8flHe09HlW9rvFqUE0Rxjm
96ImK8VM7tBPI5KKqxhyg41oHmV/2zYFQfuHkj97Oi4bJPbCi0IxPxCjgm9gvvUI
qyurp4ft+8Bqynzw88/FeDkbtLtnp+b/AgMBAAGjggEBMIH+MAkGA1UdEwQCMAAw
LAYJYIZIAYb4QgENBB8WHU9wZW5TU0wgR2VuZXJhdGVkIENlcnRpZmljYXRlMB0G
A1UdDgQWBBT+GsCch1Ob+m7/i1dWKKhyzwVo2zCBowYDVR0jBIGbMIGYgBT/9W9R
Ygi6Tqf/I1fEgLBq3LtQ66F1pHMwcTELMAkGA1UEBhMCQVUxEzARBgNVBAgTClNv
bWUtU3RhdGUxITAfBgNVBAoTGEludGVybmV0IFdpZGdpdHMgUHR5IEx0ZDELMAkG
A1UEAxMCQ0ExHTAbBgkqhkiG9w0BCQEWDmNhQGV4YW1wbGUuY29tggkAjyesnfa2
bEYwDQYJKoZIhvcNAQEFBQADgYEAOEfons4Tt/3n1AHTvSrbJ+6aVz+gxQmCZ1hx
tX/g5zhkF8RLcCP0TCQS9AeK7uTFjny5EYEHfNszmYDpSiIv7Yl6rCaZGp16FKjZ
1kt33tm2qy8wNp9a7CeUfhZ6BP4Pkfs6zO+X9OPRR3alFjeMPCoJq5cE3N+8AuWw
Lwqcb7g=
-----END CERTIFICATE-----
